Certificate:
    Data:
        Version: 3 (0x2)
        Serial Number: 15 (0xf)
    Signature Algorithm: sha1WithRSAEncryption
        Issuer: C=YZ, ST=Client Empire, L=Client City, O=Client Inc., OU=:Client Administration, CN=Client Certificate Authority/emailAddress=CA@client.yz
        Validity
            Not Before: Nov 28 11:30:36 2013 GMT
            Not After : Nov 28 11:30:36 2014 GMT
        Subject: C=YZ, ST=Client Empire, L=Client City, O=Client Inc., OU=Client Users Group, CN=Ordinary Client/emailAddress=ordinary@client.yz
        Subject Public Key Info:
            Public Key Algorithm: rsaEncryption
                Public-Key: (1024 bit)
                Modulus:
                    00:9b:a7:66:89:b1:a2:39:90:b6:8d:bb:2f:cd:34:
                    27:ae:74:e9:49:f5:cd:d4:e9:c2:d4:ba:b5:2b:67:
                    57:9c:9e:3d:c2:e4:6e:63:6b:d2:12:9f:51:8a:34:
                    5a:18:be:20:bb:3e:ac:60:8c:06:20:f5:4f:49:b8:
                    7f:cb:7c:a8:1e:da:30:ff:4f:11:9a:bb:6f:44:66:
                    8a:c7:98:73:5c:c8:06:62:8e:83:d6:6a:59:6a:9e:
                    62:6c:3b:f9:fb:7a:f8:6e:5c:3f:17:ff:6a:50:12:
                    89:b2:7e:61:d8:62:fb:be:57:4e:61:5e:62:d3:04:
                    f4:67:74:3c:f6:ef:7c:5b:9f
                Exponent: 65537 (0x10001)
        X509v3 extensions:
            X509v3 Basic Constraints: 
                CA:FALSE
            Netscape Comment: 
                OpenSSL Generated Certificate
            X509v3 Subject Key Identifier: 
                92:A4:47:01:72:83:9D:AA:6F:00:16:94:19:D1:6E:A1:5A:65:63:66
            X509v3 Authority Key Identifier: 
                keyid:92:7A:3E:AD:D1:05:01:A3:BB:28:B1:1B:C1:57:D4:DA:1B:85:BB:14

    Signature Algorithm: sha1WithRSAEncryption
         6c:a0:f3:82:5c:ec:3d:93:27:54:bf:14:bb:2d:d9:d8:48:e4:
         26:12:40:88:86:a8:aa:37:ea:90:69:62:b6:20:dc:55:09:59:
         1f:0a:1f:3d:6f:63:37:e2:03:1b:b8:0a:f2:0b:b8:c6:93:43:
         f3:a7:df:18:3f:51:b8:0b:00:5f:0c:4f:26:63:f8:5c:94:33:
         c6:81:ab:28:87:58:d0:99:bf:da:ad:b5:e3:79:c0:b7:32:9c:
         80:42:01:9d:22:2f:0b:cb:c7:65:47:84:87:1e:e3:83:2a:74:
         75:46:69:cb:28:34:0e:d3:73:e5:ae:c0:d2:cd:19:c0:e7:66:
         60:26:2d:80:ad:ec:52:f3:07:51:e5:ee:0d:9a:b4:25:d2:eb:
         8e:5b:7b:1c:59:25:c5:7a:d4:35:7d:4b:6d:49:c8:1d:33:9e:
         ae:b5:78:c2:96:6b:d6:c9:ec:82:5b:9c:db:83:e2:39:e1:af:
         0a:1e:f4:d2:f8:7f:c7:d7:f9:fa:61:3d:06:ce:3b:47:17:8e:
         fe:14:90:b9:d8:2a:3f:de:fd:5d:3b:54:a6:d2:d6:75:9a:3d:
         99:60:da:0a:1a:8d:5d:85:f6:f4:8d:5f:f7:dd:18:0f:8c:4f:
         43:f2:96:9f:6c:16:9a:b1:7f:81:b9:29:11:8f:3e:50:fc:46:
         b0:1a:f9:38
-----BEGIN CERTIFICATE-----
MIID1TCCAr2gAwIBAgIBDzANBgkqhkiG9w0BAQUFADCBtjELMAkGA1UEBhMCWVox
FjAUBgNVBAgTDUNsaWVudCBFbXBpcmUxFDASBgNVBAcTC0NsaWVudCBDaXR5MRQw
EgYDVQQKEwtDbGllbnQgSW5jLjEfMB0GA1UECxMWOkNsaWVudCBBZG1pbmlzdHJh
dGlvbjElMCMGA1UEAxMcQ2xpZW50IENlcnRpZmljYXRlIEF1dGhvcml0eTEbMBkG
CSqGSIb3DQEJARYMQ0FAY2xpZW50Lnl6MB4XDTEzMTEyODExMzAzNloXDTE0MTEy
ODExMzAzNlowgasxCzAJBgNVBAYTAllaMRYwFAYDVQQIEw1DbGllbnQgRW1waXJl
MRQwEgYDVQQHEwtDbGllbnQgQ2l0eTEUMBIGA1UEChMLQ2xpZW50IEluYy4xGzAZ
BgNVBAsTEkNsaWVudCBVc2VycyBHcm91cDEYMBYGA1UEAxMPT3JkaW5hcnkgQ2xp
ZW50MSEwHwYJKoZIhvcNAQkBFhJvcmRpbmFyeUBjbGllbnQueXowgZ8wDQYJKoZI
hvcNAQEBBQADgY0AMIGJAoGBAJunZomxojmQto27L800J6506Un1zdTpwtS6tStn
V5yePcLkbmNr0hKfUYo0Whi+ILs+rGCMBiD1T0m4f8t8qB7aMP9PEZq7b0RmiseY
c1zIBmKOg9ZqWWqeYmw7+ft6+G5cPxf/alASibJ+Ydhi+75XTmFeYtME9Gd0PPbv
fFufAgMBAAGjezB5MAkGA1UdEwQCMAAwLAYJYIZIAYb4QgENBB8WHU9wZW5TU0wg
R2VuZXJhdGVkIENlcnRpZmljYXRlMB0GA1UdDgQWBBSSpEcBcoOdqm8AFpQZ0W6h
WmVjZjAfBgNVHSMEGDAWgBSSej6t0QUBo7sosRvBV9TaG4W7FDANBgkqhkiG9w0B
AQUFAAOCAQEAbKDzglzsPZMnVL8Uuy3Z2EjkJhJAiIaoqjfqkGlitiDcVQlZHwof
PW9jN+IDG7gK8gu4xpND86ffGD9RuAsAXwxPJmP4XJQzxoGrKIdY0Jm/2q2143nA
tzKcgEIBnSIvC8vHZUeEhx7jgyp0dUZpyyg0DtNz5a7A0s0ZwOdmYCYtgK3sUvMH
UeXuDZq0JdLrjlt7HFklxXrUNX1LbUnIHTOerrV4wpZr1snsgluc24PiOeGvCh70
0vh/x9f5+mE9Bs47RxeO/hSQudgqP979XTtUptLWdZo9mWDaChqNXYX29I1f990Y
D4xPQ/KWn2wWmrF/gbkpEY8+UPxGsBr5OA==
-----END CERTIFICATE-----
