Certificate:
    Data:
        Version: 3 (0x2)
        Serial Number: 8 (0x8)
        Signature Algorithm: sha1WithRSAEncryption
        Issuer: C=YZ, ST=Client Empire, L=Client City, O=Client Inc., OU=:Client Administration, CN=Client Certificate Authority/emailAddress=CA@client.yz
        Validity
            Not Before: Mar  2 00:24:19 2011 GMT
            Not After : Mar  1 00:24:19 2012 GMT
        Subject: C=YZ, ST=Client Empire, L=Client City, O=Client Inc., OU=Client Users Group, CN=Ordinary Client/emailAddress=ordinary@client.yz
        Subject Public Key Info:
            Public Key Algorithm: rsaEncryption
            RSA Public Key: (1024 bit)
                Modulus (1024 bit):
                    00:9b:d5:15:67:e8:75:da:a5:79:98:21:5e:68:cd:
                    94:11:88:db:30:4e:b0:86:57:08:cf:fe:a3:69:7b:
                    59:13:57:aa:20:0b:ec:c4:ad:ea:12:bb:a9:d8:45:
                    ee:29:59:2d:fe:6e:c8:dc:bb:02:55:fd:c9:93:c7:
                    2a:c2:45:8c:2e:0e:99:98:28:c8:83:4b:8d:f3:24:
                    ba:ce:3e:33:cf:3e:03:6d:e9:74:d3:d0:13:54:a6:
                    d5:bb:fc:01:17:09:24:5c:c3:17:0a:1c:be:8d:bb:
                    7a:2d:97:56:5d:a9:eb:88:88:2c:6a:0d:dc:a5:90:
                    1b:3e:07:ec:13:b0:23:62:2d
                Exponent: 65537 (0x10001)
        X509v3 extensions:
            X509v3 Basic Constraints: 
                CA:FALSE
            Netscape Comment: 
                OpenSSL Generated Certificate
            X509v3 Subject Key Identifier: 
                CE:17:2F:F1:3A:02:FB:47:DF:68:47:FD:37:5F:63:71:2E:6E:23:32
            X509v3 Authority Key Identifier: 
                keyid:92:7A:3E:AD:D1:05:01:A3:BB:28:B1:1B:C1:57:D4:DA:1B:85:BB:14

    Signature Algorithm: sha1WithRSAEncryption
        54:05:ed:67:35:48:d8:fb:69:15:ce:56:7b:eb:77:9d:93:0f:
        74:db:3c:17:09:f1:50:db:ab:9d:73:74:0e:0d:1d:1d:ee:11:
        fb:b3:61:de:f7:f9:b6:aa:b6:c4:c4:fd:b5:ba:ad:a5:b1:89:
        72:d5:fb:03:92:13:5a:a6:45:c5:91:5b:89:74:8b:ff:e9:27:
        4b:7a:7c:28:42:02:ea:9f:b5:89:16:07:21:7f:2e:c3:ff:b9:
        b8:03:78:8e:cf:7b:87:11:60:a6:2f:b3:84:18:55:86:f8:55:
        5d:64:b7:f3:9c:4d:ae:c0:71:75:7a:15:30:d3:e1:4c:57:91:
        14:e7:74:c2:d7:15:d7:d4:d1:4c:87:37:48:c5:9b:f3:34:e7:
        c4:2a:53:55:c8:13:18:51:8e:59:8c:24:2f:5f:d3:dd:26:be:
        09:68:65:82:9c:4b:5f:10:b6:14:9d:38:90:1b:62:c3:ec:cb:
        f9:fc:a4:cc:5d:70:51:79:dc:79:37:d1:0b:82:9b:5d:b4:fc:
        d4:43:a0:79:8f:09:e0:49:28:a0:31:32:95:f2:8f:03:56:81:
        0e:32:c8:21:22:be:b4:2e:72:1e:5c:1b:24:22:53:7d:da:10:
        03:3d:3d:8f:9f:cb:33:1d:47:ec:68:05:31:e2:89:fa:0f:32:
        63:37:c6:ed
-----BEGIN CERTIFICATE-----
MIID1TCCAr2gAwIBAgIBCDANBgkqhkiG9w0BAQUFADCBtjELMAkGA1UEBhMCWVox
FjAUBgNVBAgTDUNsaWVudCBFbXBpcmUxFDASBgNVBAcTC0NsaWVudCBDaXR5MRQw
EgYDVQQKEwtDbGllbnQgSW5jLjEfMB0GA1UECxMWOkNsaWVudCBBZG1pbmlzdHJh
dGlvbjElMCMGA1UEAxMcQ2xpZW50IENlcnRpZmljYXRlIEF1dGhvcml0eTEbMBkG
CSqGSIb3DQEJARYMQ0FAY2xpZW50Lnl6MB4XDTExMDMwMjAwMjQxOVoXDTEyMDMw
MTAwMjQxOVowgasxCzAJBgNVBAYTAllaMRYwFAYDVQQIEw1DbGllbnQgRW1waXJl
MRQwEgYDVQQHEwtDbGllbnQgQ2l0eTEUMBIGA1UEChMLQ2xpZW50IEluYy4xGzAZ
BgNVBAsTEkNsaWVudCBVc2VycyBHcm91cDEYMBYGA1UEAxMPT3JkaW5hcnkgQ2xp
ZW50MSEwHwYJKoZIhvcNAQkBFhJvcmRpbmFyeUBjbGllbnQueXowgZ8wDQYJKoZI
hvcNAQEBBQADgY0AMIGJAoGBAJvVFWfoddqleZghXmjNlBGI2zBOsIZXCM/+o2l7
WRNXqiAL7MSt6hK7qdhF7ilZLf5uyNy7AlX9yZPHKsJFjC4OmZgoyINLjfMkus4+
M88+A23pdNPQE1Sm1bv8ARcJJFzDFwocvo27ei2XVl2p64iILGoN3KWQGz4H7BOw
I2ItAgMBAAGjezB5MAkGA1UdEwQCMAAwLAYJYIZIAYb4QgENBB8WHU9wZW5TU0wg
R2VuZXJhdGVkIENlcnRpZmljYXRlMB0GA1UdDgQWBBTOFy/xOgL7R99oR/03X2Nx
Lm4jMjAfBgNVHSMEGDAWgBSSej6t0QUBo7sosRvBV9TaG4W7FDANBgkqhkiG9w0B
AQUFAAOCAQEAVAXtZzVI2PtpFc5We+t3nZMPdNs8FwnxUNurnXN0Dg0dHe4R+7Nh
3vf5tqq2xMT9tbqtpbGJctX7A5ITWqZFxZFbiXSL/+knS3p8KEIC6p+1iRYHIX8u
w/+5uAN4js97hxFgpi+zhBhVhvhVXWS385xNrsBxdXoVMNPhTFeRFOd0wtcV19TR
TIc3SMWb8zTnxCpTVcgTGFGOWYwkL1/T3Sa+CWhlgpxLXxC2FJ04kBtiw+zL+fyk
zF1wUXnceTfRC4KbXbT81EOgeY8J4EkooDEylfKPA1aBDjLIISK+tC5yHlwbJCJT
fdoQAz09j5/LMx1H7GgFMeKJ+g8yYzfG7Q==
-----END CERTIFICATE-----
