Certificate:
    Data:
        Version: 3 (0x2)
        Serial Number: 4 (0x4)
        Signature Algorithm: sha1WithRSAEncryption
        Issuer: C=XY, ST=Smerpland, L=Smerpville, O=Smerp Corp., OU=Smerp Fathers, CN=SMERP CA/emailAddress=CA@smerp.xy
        Validity
            Not Before: Apr  4 00:29:40 2010 GMT
            Not After : Apr  4 00:29:40 2011 GMT
        Subject: C=XY, ST=Smerpland, L=Smerpdorf, O=Smerp Corp., OU=Smerp Servers, CN=SMERP Server with password/emailAddress=smerpdpwd@smerp.xy
        Subject Public Key Info:
            Public Key Algorithm: rsaEncryption
            RSA Public Key: (1024 bit)
                Modulus (1024 bit):
                    00:b6:d3:98:be:6e:a9:e0:89:ba:91:f7:ca:9f:ab:
                    d4:75:fb:02:ba:84:cf:d4:cb:8d:c0:5c:84:17:2f:
                    2e:68:40:1c:fc:d7:56:49:6a:9c:ef:98:31:54:1f:
                    24:da:42:58:d2:0b:78:c1:e4:4d:38:00:f9:ed:0e:
                    5e:f9:f8:80:0f:85:d0:80:d9:0e:a1:ae:64:7a:1f:
                    b6:98:7b:4e:76:80:50:50:4e:0d:d5:3f:3b:ef:2e:
                    8b:36:38:8d:66:94:32:f2:aa:84:67:01:74:1c:e1:
                    be:db:2b:8c:fb:0f:13:b4:d4:8f:8d:9d:ce:d6:07:
                    4c:17:0c:eb:85:d1:da:96:15
                Exponent: 65537 (0x10001)
        X509v3 extensions:
            X509v3 Basic Constraints: 
                CA:FALSE
            Netscape Comment: 
                OpenSSL Generated Certificate
            X509v3 Subject Key Identifier: 
                D1:76:55:4F:D8:3C:22:D5:53:36:6B:44:46:9A:67:46:00:51:CA:C1
            X509v3 Authority Key Identifier: 
                keyid:BA:71:9C:97:06:7C:3C:B3:70:2D:9E:47:27:9E:94:47:53:A9:0F:D3

    Signature Algorithm: sha1WithRSAEncryption
        bd:01:81:96:a9:74:bb:c5:a7:8f:87:90:7d:ef:a3:43:1f:17:
        5e:0c:f8:7b:64:4f:57:0a:c0:08:33:8a:73:cd:a1:b3:b1:c4:
        01:a2:a0:65:bb:47:5f:98:23:de:dd:5e:25:80:5b:9a:b9:da:
        74:32:d0:34:a0:a4:69:8f:2f:68:42:85:7e:42:56:9e:fd:e9:
        8b:27:92:ee:cd:1c:09:52:77:03:8e:81:3c:e8:f6:44:fd:a0:
        f5:99:14:d6:a6:b9:5d:7c:26:94:81:d8:18:b6:d4:38:d5:1d:
        2d:e5:e5:df:bb:93:2a:02:81:6d:89:b5:cc:41:df:16:e4:09:
        72:3f:e0:82:33:11:08:d5:71:8d:a4:4f:a2:d6:6e:0a:6d:8f:
        f8:2b:fe:47:f7:79:0b:1e:1a:e3:25:8e:c7:5d:15:43:3f:b8:
        bb:d1:35:92:19:26:eb:0e:9d:57:41:af:e5:c6:da:d8:29:f2:
        89:84:1b:4b:92:6c:1e:6d:2a:75:ea:c5:bd:f5:9d:4c:b1:69:
        c7:dd:fb:a3:f0:b8:58:d7:44:50:1a:0b:0f:c4:32:74:a0:72:
        6a:12:43:a0:af:4e:e2:31:b4:ab:05:5d:05:47:d2:5c:9a:5d:
        05:85:93:af:e9:84:be:f7:9b:9d:fe:06:b6:a4:50:31:72:3a:
        2a:ab:54:2c
-----BEGIN CERTIFICATE-----
MIIDsjCCApqgAwIBAgIBBDANBgkqhkiG9w0BAQUFADCBkzELMAkGA1UEBhMCWFkx
EjAQBgNVBAgTCVNtZXJwbGFuZDETMBEGA1UEBxMKU21lcnB2aWxsZTEUMBIGA1UE
ChMLU21lcnAgQ29ycC4xFjAUBgNVBAsTDVNtZXJwIEZhdGhlcnMxETAPBgNVBAMT
CFNNRVJQIENBMRowGAYJKoZIhvcNAQkBFgtDQUBzbWVycC54eTAeFw0xMDA0MDQw
MDI5NDBaFw0xMTA0MDQwMDI5NDBaMIGrMQswCQYDVQQGEwJYWTESMBAGA1UECBMJ
U21lcnBsYW5kMRIwEAYDVQQHEwlTbWVycGRvcmYxFDASBgNVBAoTC1NtZXJwIENv
cnAuMRYwFAYDVQQLEw1TbWVycCBTZXJ2ZXJzMSMwIQYDVQQDExpTTUVSUCBTZXJ2
ZXIgd2l0aCBwYXNzd29yZDEhMB8GCSqGSIb3DQEJARYSc21lcnBkcHdkQHNtZXJw
Lnh5MIGfMA0GCSqGSIb3DQEBAQUAA4GNADCBiQKBgQC205i+bqngibqR98qfq9R1
+wK6hM/Uy43AXIQXLy5oQBz811ZJapzvmDFUHyTaQljSC3jB5E04APntDl75+IAP
hdCA2Q6hrmR6H7aYe052gFBQTg3VPzvvLos2OI1mlDLyqoRnAXQc4b7bK4z7DxO0
1I+Nnc7WB0wXDOuF0dqWFQIDAQABo3sweTAJBgNVHRMEAjAAMCwGCWCGSAGG+EIB
DQQfFh1PcGVuU1NMIEdlbmVyYXRlZCBDZXJ0aWZpY2F0ZTAdBgNVHQ4EFgQU0XZV
T9g8ItVTNmtERppnRgBRysEwHwYDVR0jBBgwFoAUunGclwZ8PLNwLZ5HJ56UR1Op
D9MwDQYJKoZIhvcNAQEFBQADggEBAL0BgZapdLvFp4+HkH3vo0MfF14M+HtkT1cK
wAgzinPNobOxxAGioGW7R1+YI97dXiWAW5q52nQy0DSgpGmPL2hChX5CVp796Ysn
ku7NHAlSdwOOgTzo9kT9oPWZFNamuV18JpSB2Bi21DjVHS3l5d+7kyoCgW2JtcxB
3xbkCXI/4IIzEQjVcY2kT6LWbgptj/gr/kf3eQseGuMljsddFUM/uLvRNZIZJusO
nVdBr+XG2tgp8omEG0uSbB5tKnXqxb31nUyxacfd+6PwuFjXRFAaCw/EMnSgcmoS
Q6CvTuIxtKsFXQVH0lyaXQWFk6/phL73m53+BrakUDFyOiqrVCw=
-----END CERTIFICATE-----
