Certificate:
    Data:
        Version: 3 (0x2)
        Serial Number: 1 (0x1)
        Signature Algorithm: sha1WithRSAEncryption
        Issuer: C=XY, ST=Smerpland, L=Smerpville, O=Smerp Corp., OU=Smerp Fathers, CN=SMERP CA/emailAddress=CA@smerp.xy
        Validity
            Not Before: Mar 19 10:48:13 2010 GMT
            Not After : Mar 19 10:48:13 2011 GMT
        Subject: C=XY, ST=Smerpland, L=Smerpville, O=Smerp Corp., OU=Smerp Testing, CN=SMERP Server/emailAddress=server@smerp.xy
        Subject Public Key Info:
            Public Key Algorithm: rsaEncryption
            RSA Public Key: (1024 bit)
                Modulus (1024 bit):
                    00:ac:4c:3e:2c:c6:4e:73:ed:c9:06:bf:1b:41:67:
                    a2:d3:48:23:af:b8:80:65:e2:2f:11:83:42:f0:cb:
                    87:8e:a8:c6:6c:d5:81:e5:bd:2b:9a:5c:27:f4:b7:
                    46:f1:51:7d:7d:a7:29:c4:4f:f1:93:cd:c3:2b:d7:
                    aa:28:d4:81:5c:fc:a9:ef:56:72:ca:13:f2:f3:33:
                    0a:a1:53:87:90:17:66:f3:6c:b4:3a:64:de:fd:ab:
                    41:59:58:59:b2:49:8d:ba:10:ce:81:e0:32:15:f1:
                    c5:fd:ed:6c:01:2b:5f:50:8c:14:2d:8c:cf:58:f0:
                    1b:65:91:6c:44:a7:d3:9d:a7
                Exponent: 65537 (0x10001)
        X509v3 extensions:
            X509v3 Basic Constraints: 
                CA:FALSE
            Netscape Comment: 
                OpenSSL Generated Certificate
            X509v3 Subject Key Identifier: 
                DF:44:9B:F7:23:83:95:64:67:67:B0:A0:5D:5D:00:D5:2F:DE:AE:36
            X509v3 Authority Key Identifier: 
                keyid:BA:71:9C:97:06:7C:3C:B3:70:2D:9E:47:27:9E:94:47:53:A9:0F:D3

    Signature Algorithm: sha1WithRSAEncryption
        92:05:99:4e:95:52:2f:c7:4d:b1:d0:8f:68:b2:33:c5:7d:5b:
        d0:99:09:6e:f0:af:73:5b:ef:88:0d:1b:13:73:4f:ee:d0:03:
        9c:46:6a:d8:df:03:c5:a6:d0:2b:d0:8e:2c:60:e0:d5:1c:aa:
        47:f1:e8:0f:8f:e3:3c:e9:23:92:4d:23:d1:36:8c:8b:38:a2:
        d5:66:77:da:f0:75:e0:b2:bc:80:ff:1e:5f:da:8d:3d:ed:0a:
        5c:f9:4d:28:45:2a:8c:f2:b5:18:c0:d5:d6:21:84:12:8f:d6:
        6b:f9:05:4a:b1:22:65:34:fb:f5:f8:e4:be:e6:28:72:9a:c1:
        21:67:35:f1:76:8c:4e:6b:4f:d2:e4:44:c9:f1:85:cd:7f:6c:
        7f:f4:df:cd:e6:dc:6c:df:d9:67:26:df:fd:1a:81:7c:58:86:
        60:d8:11:c6:d5:07:7b:33:73:ae:ff:96:bb:34:07:da:51:2a:
        91:ee:8f:ab:1f:e3:dc:e6:87:a1:3f:d6:db:96:6b:67:cb:d9:
        84:82:e8:f2:63:dc:13:7b:c8:85:57:65:df:98:60:dc:aa:c8:
        e9:29:35:c9:f6:fd:dd:ce:e2:b7:ed:75:c8:7a:f7:4d:25:bd:
        c3:cc:7b:f5:ab:11:2c:91:bf:7f:db:e2:a6:fc:de:da:72:38:
        85:7d:59:1d
-----BEGIN CERTIFICATE-----
MIIDojCCAoqgAwIBAgIBATANBgkqhkiG9w0BAQUFADCBkzELMAkGA1UEBhMCWFkx
EjAQBgNVBAgTCVNtZXJwbGFuZDETMBEGA1UEBxMKU21lcnB2aWxsZTEUMBIGA1UE
ChMLU21lcnAgQ29ycC4xFjAUBgNVBAsTDVNtZXJwIEZhdGhlcnMxETAPBgNVBAMT
CFNNRVJQIENBMRowGAYJKoZIhvcNAQkBFgtDQUBzbWVycC54eTAeFw0xMDAzMTkx
MDQ4MTNaFw0xMTAzMTkxMDQ4MTNaMIGbMQswCQYDVQQGEwJYWTESMBAGA1UECBMJ
U21lcnBsYW5kMRMwEQYDVQQHEwpTbWVycHZpbGxlMRQwEgYDVQQKEwtTbWVycCBD
b3JwLjEWMBQGA1UECxMNU21lcnAgVGVzdGluZzEVMBMGA1UEAxMMU01FUlAgU2Vy
dmVyMR4wHAYJKoZIhvcNAQkBFg9zZXJ2ZXJAc21lcnAueHkwgZ8wDQYJKoZIhvcN
AQEBBQADgY0AMIGJAoGBAKxMPizGTnPtyQa/G0FnotNII6+4gGXiLxGDQvDLh46o
xmzVgeW9K5pcJ/S3RvFRfX2nKcRP8ZPNwyvXqijUgVz8qe9WcsoT8vMzCqFTh5AX
ZvNstDpk3v2rQVlYWbJJjboQzoHgMhXxxf3tbAErX1CMFC2Mz1jwG2WRbESn052n
AgMBAAGjezB5MAkGA1UdEwQCMAAwLAYJYIZIAYb4QgENBB8WHU9wZW5TU0wgR2Vu
ZXJhdGVkIENlcnRpZmljYXRlMB0GA1UdDgQWBBTfRJv3I4OVZGdnsKBdXQDVL96u
NjAfBgNVHSMEGDAWgBS6cZyXBnw8s3AtnkcnnpRHU6kP0zANBgkqhkiG9w0BAQUF
AAOCAQEAkgWZTpVSL8dNsdCPaLIzxX1b0JkJbvCvc1vviA0bE3NP7tADnEZq2N8D
xabQK9COLGDg1RyqR/HoD4/jPOkjkk0j0TaMizii1WZ32vB14LK8gP8eX9qNPe0K
XPlNKEUqjPK1GMDV1iGEEo/Wa/kFSrEiZTT79fjkvuYocprBIWc18XaMTmtP0uRE
yfGFzX9sf/TfzebcbN/ZZybf/RqBfFiGYNgRxtUHezNzrv+WuzQH2lEqke6Pqx/j
3OaHoT/W25ZrZ8vZhILo8mPcE3vIhVdl35hg3KrI6Sk1yfb93c7it+11yHr3TSW9
w8x79asRLJG/f9vipvze2nI4hX1ZHQ==
-----END CERTIFICATE-----
