Certificate:
    Data:
        Version: 3 (0x2)
        Serial Number: 10 (0xa)
    Signature Algorithm: sha1WithRSAEncryption
        Issuer: C=XY, ST=Wolfland, L=Wolfville, O=Wolf Pack Ltd, OU=Dinowolves Group, CN=Wolf CA/emailAddress=CA@wolframe.net
        Validity
            Not Before: Oct 16 15:01:57 2012 GMT
            Not After : Oct 16 15:01:57 2013 GMT
        Subject: C=XY, ST=Wolfland, L=Wolfville, O=Wolf Pack Ltd, OU=Dinowolves Group, CN=Wolframe Server/emailAddress=server@wolframe.net
        Subject Public Key Info:
            Public Key Algorithm: rsaEncryption
                Public-Key: (1024 bit)
                Modulus:
                    00:c6:93:32:24:7a:7c:21:d9:88:27:c2:2c:5d:bd:
                    12:7a:c9:9b:cf:eb:d6:25:ec:be:b8:64:c6:fa:87:
                    14:c9:a0:18:98:ae:a3:0b:0d:d4:74:1c:98:50:77:
                    7b:61:4e:fc:fa:69:87:80:f5:9d:03:8d:c7:da:27:
                    90:e3:75:d6:c0:37:b4:59:ca:6a:65:a1:b7:de:3b:
                    2a:9a:42:e8:bd:1c:6c:0c:7d:64:c9:ca:3f:b0:e2:
                    df:ee:59:fd:c3:fa:96:65:71:c3:c8:55:3e:f7:e1:
                    51:59:e1:eb:84:93:22:de:d4:a9:ad:bb:86:75:06:
                    82:bb:90:12:9e:24:e8:5b:bd
                Exponent: 65537 (0x10001)
        X509v3 extensions:
            X509v3 Basic Constraints: 
                CA:FALSE
            Netscape Comment: 
                OpenSSL Generated Certificate
            X509v3 Subject Key Identifier: 
                48:FF:9F:C1:6D:A0:E0:4C:4A:79:0E:7E:6A:F6:CC:9E:1F:41:F4:21
            X509v3 Authority Key Identifier: 
                keyid:4E:BA:C7:16:FD:E0:E8:D2:F8:E8:33:2C:8B:60:04:9C:17:E8:78:BD

    Signature Algorithm: sha1WithRSAEncryption
         13:ac:15:26:37:fa:03:83:1c:91:eb:a1:d7:19:fa:4f:82:1c:
         d5:b5:d0:a5:30:6f:e3:1e:25:9e:d8:4c:4d:2f:21:5f:d6:f3:
         34:e6:79:f2:d3:c0:31:05:36:ff:f3:8e:96:cb:93:b0:5f:0c:
         d9:22:63:82:02:06:3a:76:8d:04:84:5a:ad:87:96:fe:8a:be:
         e6:32:c6:f8:8e:e7:15:7f:6e:41:3a:c6:fb:c5:b9:b0:55:2b:
         dd:43:a1:f7:c1:80:2f:f1:9a:3f:28:2a:af:e4:4c:30:cf:5e:
         8b:d9:a5:72:23:f3:1c:1e:19:ac:85:95:f2:66:10:39:5c:18:
         2f:53:9f:68:b7:8f:de:bc:af:84:1a:30:6b:d1:61:03:bd:46:
         88:34:b8:0a:46:fb:0a:56:cd:55:ba:07:33:1c:a5:97:9d:d9:
         43:66:d2:02:3b:1c:38:fb:96:b6:b4:33:7e:ae:27:80:77:5a:
         ac:4c:0b:90:a7:bd:4c:88:79:8f:f4:5c:32:c4:62:19:18:b1:
         76:8c:1f:96:b3:fb:e6:f1:1e:c5:4f:0f:ba:a6:3e:e1:33:97:
         48:94:be:be:9d:8b:47:9d:3d:5b:5f:3b:1e:1e:52:94:ea:02:
         6b:85:c5:fa:b8:62:48:f1:ef:31:89:2d:07:94:20:e5:18:45:
         ad:ad:72:08
-----BEGIN CERTIFICATE-----
MIIDsjCCApqgAwIBAgIBCjANBgkqhkiG9w0BAQUFADCBmTELMAkGA1UEBhMCWFkx
ETAPBgNVBAgTCFdvbGZsYW5kMRIwEAYDVQQHEwlXb2xmdmlsbGUxFjAUBgNVBAoT
DVdvbGYgUGFjayBMdGQxGTAXBgNVBAsTEERpbm93b2x2ZXMgR3JvdXAxEDAOBgNV
BAMTB1dvbGYgQ0ExHjAcBgkqhkiG9w0BCQEWD0NBQHdvbGZyYW1lLm5ldDAeFw0x
MjEwMTYxNTAxNTdaFw0xMzEwMTYxNTAxNTdaMIGlMQswCQYDVQQGEwJYWTERMA8G
A1UECBMIV29sZmxhbmQxEjAQBgNVBAcTCVdvbGZ2aWxsZTEWMBQGA1UEChMNV29s
ZiBQYWNrIEx0ZDEZMBcGA1UECxMQRGlub3dvbHZlcyBHcm91cDEYMBYGA1UEAxMP
V29sZnJhbWUgU2VydmVyMSIwIAYJKoZIhvcNAQkBFhNzZXJ2ZXJAd29sZnJhbWUu
bmV0MIGfMA0GCSqGSIb3DQEBAQUAA4GNADCBiQKBgQDGkzIkenwh2YgnwixdvRJ6
yZvP69Yl7L64ZMb6hxTJoBiYrqMLDdR0HJhQd3thTvz6aYeA9Z0DjcfaJ5DjddbA
N7RZymplobfeOyqaQui9HGwMfWTJyj+w4t/uWf3D+pZlccPIVT734VFZ4euEkyLe
1Kmtu4Z1BoK7kBKeJOhbvQIDAQABo3sweTAJBgNVHRMEAjAAMCwGCWCGSAGG+EIB
DQQfFh1PcGVuU1NMIEdlbmVyYXRlZCBDZXJ0aWZpY2F0ZTAdBgNVHQ4EFgQUSP+f
wW2g4ExKeQ5+avbMnh9B9CEwHwYDVR0jBBgwFoAUTrrHFv3g6NL46DMsi2AEnBfo
eL0wDQYJKoZIhvcNAQEFBQADggEBABOsFSY3+gODHJHrodcZ+k+CHNW10KUwb+Me
JZ7YTE0vIV/W8zTmefLTwDEFNv/zjpbLk7BfDNkiY4ICBjp2jQSEWq2Hlv6KvuYy
xviO5xV/bkE6xvvFubBVK91DoffBgC/xmj8oKq/kTDDPXovZpXIj8xweGayFlfJm
EDlcGC9Tn2i3j968r4QaMGvRYQO9Rog0uApG+wpWzVW6BzMcpZed2UNm0gI7HDj7
lra0M36uJ4B3WqxMC5CnvUyIeY/0XDLEYhkYsXaMH5az++bxHsVPD7qmPuEzl0iU
vr6di0edPVtfOx4eUpTqAmuFxfq4Ykjx7zGJLQeUIOUYRa2tcgg=
-----END CERTIFICATE-----
