Certificate:
    Data:
        Version: 3 (0x2)
        Serial Number: 7 (0x7)
        Signature Algorithm: sha1WithRSAEncryption
        Issuer: C=XY, ST=Wolfland, L=Wolfville, O=Wolf Pack Ltd, OU=Dinowolves Group, CN=Wolf CA/emailAddress=CA@wolframe.net
        Validity
            Not Before: Mar  2 00:09:34 2011 GMT
            Not After : Mar  1 00:09:34 2012 GMT
        Subject: C=XY, ST=Wolfland, L=Wolfville, O=Wolf Pack Ltd, OU=Dinowolves Group, CN=Wolframe Client/emailAddress=client@wolframe.net
        Subject Public Key Info:
            Public Key Algorithm: rsaEncryption
            RSA Public Key: (1024 bit)
                Modulus (1024 bit):
                    00:cb:f9:39:a1:e1:0c:c3:41:06:fb:37:d8:e6:1f:
                    f1:10:7d:46:22:e0:22:e7:db:11:11:c9:72:dc:77:
                    92:85:4d:fc:5a:8a:fe:73:12:03:50:b5:70:34:ed:
                    48:33:31:51:62:f7:05:75:3a:be:73:ae:9a:0c:6d:
                    89:18:30:30:29:ab:2a:fa:89:3b:8f:2e:9d:0d:a4:
                    5c:cf:92:e6:84:be:5a:44:36:a9:bc:46:7f:cf:de:
                    e4:95:30:30:dd:80:74:6d:d3:87:fb:34:a2:34:72:
                    04:10:51:14:36:78:18:6f:9d:ab:c4:db:2e:06:c2:
                    b4:36:4b:72:58:1b:ed:23:1f
                Exponent: 65537 (0x10001)
        X509v3 extensions:
            X509v3 Basic Constraints: 
                CA:FALSE
            Netscape Comment: 
                OpenSSL Generated Certificate
            X509v3 Subject Key Identifier: 
                4E:3B:AC:D2:49:1F:7D:CE:94:17:1F:83:2C:ED:76:6E:D8:E9:67:3D
            X509v3 Authority Key Identifier: 
                keyid:4E:BA:C7:16:FD:E0:E8:D2:F8:E8:33:2C:8B:60:04:9C:17:E8:78:BD

    Signature Algorithm: sha1WithRSAEncryption
        46:4c:15:07:7d:27:fb:be:ac:0e:f2:fc:c3:96:47:0c:10:4f:
        af:2e:91:3e:ed:c3:d7:ed:28:33:5c:13:db:6a:37:52:54:2a:
        97:1a:31:3c:cb:81:73:cb:50:1e:3d:79:90:47:78:f1:d8:35:
        5c:95:4b:0d:5f:d2:3b:06:5a:ef:b9:95:27:e1:03:13:d3:92:
        32:2d:79:f9:79:43:98:ed:17:7f:f1:ef:b0:db:51:38:5d:c7:
        2c:e7:85:3e:79:b0:14:3e:8b:6e:7e:d6:22:4d:56:93:ac:05:
        58:d9:c1:96:3e:04:d8:66:54:ea:f8:4f:a9:e9:86:03:64:64:
        50:5f:cd:49:81:93:b6:98:15:c4:e7:77:53:9c:67:b3:ad:08:
        11:f6:36:24:e8:4f:da:5b:c3:bd:58:bb:a9:06:19:d0:ef:3c:
        f1:37:12:3e:45:ca:e5:21:dc:9b:77:73:9f:26:d5:e7:4d:c8:
        05:36:ea:b7:32:12:42:23:2b:0e:2c:36:e6:28:1e:73:d2:1e:
        52:72:55:82:00:62:b1:a1:e1:53:7b:b4:59:ba:9f:a8:4d:48:
        22:be:f1:7c:f4:67:f2:9d:77:23:6c:0c:31:1f:ef:b3:95:f5:
        8e:16:4d:dd:e3:08:ab:57:53:3d:4a:ba:cf:da:43:bd:fc:69:
        06:6e:c9:3b
-----BEGIN CERTIFICATE-----
MIIDsjCCApqgAwIBAgIBBzANBgkqhkiG9w0BAQUFADCBmTELMAkGA1UEBhMCWFkx
ETAPBgNVBAgTCFdvbGZsYW5kMRIwEAYDVQQHEwlXb2xmdmlsbGUxFjAUBgNVBAoT
DVdvbGYgUGFjayBMdGQxGTAXBgNVBAsTEERpbm93b2x2ZXMgR3JvdXAxEDAOBgNV
BAMTB1dvbGYgQ0ExHjAcBgkqhkiG9w0BCQEWD0NBQHdvbGZyYW1lLm5ldDAeFw0x
MTAzMDIwMDA5MzRaFw0xMjAzMDEwMDA5MzRaMIGlMQswCQYDVQQGEwJYWTERMA8G
A1UECBMIV29sZmxhbmQxEjAQBgNVBAcTCVdvbGZ2aWxsZTEWMBQGA1UEChMNV29s
ZiBQYWNrIEx0ZDEZMBcGA1UECxMQRGlub3dvbHZlcyBHcm91cDEYMBYGA1UEAxMP
V29sZnJhbWUgQ2xpZW50MSIwIAYJKoZIhvcNAQkBFhNjbGllbnRAd29sZnJhbWUu
bmV0MIGfMA0GCSqGSIb3DQEBAQUAA4GNADCBiQKBgQDL+Tmh4QzDQQb7N9jmH/EQ
fUYi4CLn2xERyXLcd5KFTfxaiv5zEgNQtXA07UgzMVFi9wV1Or5zrpoMbYkYMDAp
qyr6iTuPLp0NpFzPkuaEvlpENqm8Rn/P3uSVMDDdgHRt04f7NKI0cgQQURQ2eBhv
navE2y4GwrQ2S3JYG+0jHwIDAQABo3sweTAJBgNVHRMEAjAAMCwGCWCGSAGG+EIB
DQQfFh1PcGVuU1NMIEdlbmVyYXRlZCBDZXJ0aWZpY2F0ZTAdBgNVHQ4EFgQUTjus
0kkffc6UFx+DLO12btjpZz0wHwYDVR0jBBgwFoAUTrrHFv3g6NL46DMsi2AEnBfo
eL0wDQYJKoZIhvcNAQEFBQADggEBAEZMFQd9J/u+rA7y/MOWRwwQT68ukT7tw9ft
KDNcE9tqN1JUKpcaMTzLgXPLUB49eZBHePHYNVyVSw1f0jsGWu+5lSfhAxPTkjIt
efl5Q5jtF3/x77DbUThdxyznhT55sBQ+i25+1iJNVpOsBVjZwZY+BNhmVOr4T6np
hgNkZFBfzUmBk7aYFcTnd1OcZ7OtCBH2NiToT9pbw71Yu6kGGdDvPPE3Ej5FyuUh
3Jt3c58m1edNyAU26rcyEkIjKw4sNuYoHnPSHlJyVYIAYrGh4VN7tFm6n6hNSCK+
8Xz0Z/KddyNsDDEf77OV9Y4WTd3jCKtXUz1Kus/aQ738aQZuyTs=
-----END CERTIFICATE-----
