Certificate:
    Data:
        Version: 3 (0x2)
        Serial Number: 14 (0xe)
    Signature Algorithm: sha1WithRSAEncryption
        Issuer: C=XY, ST=Wolfland, L=Wolfville, O=Wolf Pack Ltd, OU=Dinowolves Group, CN=Wolf CA/emailAddress=CA@wolframe.net
        Validity
            Not Before: Nov 28 11:11:51 2013 GMT
            Not After : Nov 28 11:11:51 2014 GMT
        Subject: C=XY, ST=Wolfland, L=Wolfville, O=Wolf Pack Ltd, OU=Dinowolves Group, CN=Wolframe Server (password protected)/emailAddress=server-pwd@wolframe.net
        Subject Public Key Info:
            Public Key Algorithm: rsaEncryption
                Public-Key: (1024 bit)
                Modulus:
                    00:b5:fb:16:e8:c7:10:99:89:83:18:fe:cc:3f:4b:
                    f4:5a:08:55:90:6c:85:77:95:cd:4f:19:a7:69:49:
                    7e:3c:bd:aa:e3:00:84:50:b8:92:32:21:f7:8c:02:
                    2c:54:98:88:bc:fa:2a:c7:91:5f:dd:9a:7e:cd:76:
                    bf:0d:ba:be:27:aa:6d:0b:0d:64:da:bb:0d:1e:84:
                    3a:28:e5:55:d5:4d:d5:34:d2:40:47:a7:2d:77:49:
                    fc:15:54:37:c7:d7:90:0f:f9:db:39:7c:1a:65:29:
                    53:6c:91:1b:ad:cf:15:c0:d4:71:9e:83:22:29:dc:
                    a4:16:db:bd:71:19:34:b1:01
                Exponent: 65537 (0x10001)
        X509v3 extensions:
            X509v3 Basic Constraints: 
                CA:FALSE
            Netscape Comment: 
                OpenSSL Generated Certificate
            X509v3 Subject Key Identifier: 
                B8:D8:2E:89:A7:F0:DF:E8:60:86:6A:4C:A7:A7:35:9D:B8:54:B1:FE
            X509v3 Authority Key Identifier: 
                keyid:4E:BA:C7:16:FD:E0:E8:D2:F8:E8:33:2C:8B:60:04:9C:17:E8:78:BD

    Signature Algorithm: sha1WithRSAEncryption
         61:d8:00:b7:5d:3e:61:be:f9:79:29:c1:6b:c6:8b:7a:3a:8c:
         23:9e:1d:c5:90:dc:5a:7f:a6:b5:01:58:ef:59:89:5b:d6:7a:
         83:05:35:96:c9:c9:83:92:6c:69:ff:5a:c2:66:ea:41:6a:42:
         6d:b3:e4:45:6a:68:80:73:15:63:01:ee:e6:bc:83:98:17:e5:
         bd:8a:6a:95:44:34:fd:0d:9b:e2:53:f7:5a:ce:c8:a3:ad:02:
         29:4d:13:05:0f:68:f3:50:c9:b0:77:0c:34:6e:1d:cf:44:08:
         f3:5b:7b:81:2e:39:9f:ae:98:9d:20:9c:e6:91:e9:8a:fe:c8:
         f4:e4:4e:6b:e5:22:d0:03:ea:ca:bc:c9:da:28:a0:72:cf:86:
         ab:d6:6a:09:c8:21:17:4b:3a:1a:75:ad:cc:67:2b:20:9c:c7:
         00:60:e5:b4:25:9b:67:69:46:8f:bd:2b:e2:92:ed:e1:d2:13:
         06:eb:87:40:a0:70:d3:02:fb:87:cf:fc:a6:24:94:32:c2:d4:
         89:91:5a:eb:d0:a8:6e:54:fe:67:b8:c6:97:85:3e:d8:c1:53:
         f7:3c:35:3e:fd:fd:dd:6a:3f:39:18:f3:f3:c5:47:a6:cd:55:
         59:ed:48:db:78:68:de:ea:36:51:69:ba:ff:b5:db:28:d8:2b:
         7d:eb:c8:bd
-----BEGIN CERTIFICATE-----
MIIDyzCCArOgAwIBAgIBDjANBgkqhkiG9w0BAQUFADCBmTELMAkGA1UEBhMCWFkx
ETAPBgNVBAgTCFdvbGZsYW5kMRIwEAYDVQQHEwlXb2xmdmlsbGUxFjAUBgNVBAoT
DVdvbGYgUGFjayBMdGQxGTAXBgNVBAsTEERpbm93b2x2ZXMgR3JvdXAxEDAOBgNV
BAMTB1dvbGYgQ0ExHjAcBgkqhkiG9w0BCQEWD0NBQHdvbGZyYW1lLm5ldDAeFw0x
MzExMjgxMTExNTFaFw0xNDExMjgxMTExNTFaMIG+MQswCQYDVQQGEwJYWTERMA8G
A1UECBMIV29sZmxhbmQxEjAQBgNVBAcTCVdvbGZ2aWxsZTEWMBQGA1UEChMNV29s
ZiBQYWNrIEx0ZDEZMBcGA1UECxMQRGlub3dvbHZlcyBHcm91cDEtMCsGA1UEAxMk
V29sZnJhbWUgU2VydmVyIChwYXNzd29yZCBwcm90ZWN0ZWQpMSYwJAYJKoZIhvcN
AQkBFhdzZXJ2ZXItcHdkQHdvbGZyYW1lLm5ldDCBnzANBgkqhkiG9w0BAQEFAAOB
jQAwgYkCgYEAtfsW6McQmYmDGP7MP0v0WghVkGyFd5XNTxmnaUl+PL2q4wCEULiS
MiH3jAIsVJiIvPoqx5Ff3Zp+zXa/Dbq+J6ptCw1k2rsNHoQ6KOVV1U3VNNJAR6ct
d0n8FVQ3x9eQD/nbOXwaZSlTbJEbrc8VwNRxnoMiKdykFtu9cRk0sQECAwEAAaN7
MHkwCQYDVR0TBAIwADAsBglghkgBhvhCAQ0EHxYdT3BlblNTTCBHZW5lcmF0ZWQg
Q2VydGlmaWNhdGUwHQYDVR0OBBYEFLjYLomn8N/oYIZqTKenNZ24VLH+MB8GA1Ud
IwQYMBaAFE66xxb94OjS+OgzLItgBJwX6Hi9MA0GCSqGSIb3DQEBBQUAA4IBAQBh
2AC3XT5hvvl5KcFrxot6Oowjnh3FkNxaf6a1AVjvWYlb1nqDBTWWycmDkmxp/1rC
ZupBakJts+RFamiAcxVjAe7mvIOYF+W9imqVRDT9DZviU/dazsijrQIpTRMFD2jz
UMmwdww0bh3PRAjzW3uBLjmfrpidIJzmkemK/sj05E5r5SLQA+rKvMnaKKByz4ar
1moJyCEXSzoada3MZysgnMcAYOW0JZtnaUaPvSviku3h0hMG64dAoHDTAvuHz/ym
JJQywtSJkVrr0KhuVP5nuMaXhT7YwVP3PDU+/f3daj85GPPzxUemzVVZ7UjbeGje
6jZRabr/tdso2Ct968i9
-----END CERTIFICATE-----
