Certificate:
    Data:
        Version: 3 (0x2)
        Serial Number: 6 (0x6)
        Signature Algorithm: sha1WithRSAEncryption
        Issuer: C=XY, ST=Wolfland, L=Wolfville, O=Wolf Pack Ltd, OU=Dinowolves Group, CN=Wolf CA/emailAddress=CA@wolframe.net
        Validity
            Not Before: Mar  2 00:07:05 2011 GMT
            Not After : Mar  1 00:07:05 2012 GMT
        Subject: C=XY, ST=Wolfland, L=Wolfville, O=Wolf Pack Ltd, OU=Dinowolves Group, CN=Wolframe Server (password protected)/emailAddress=server@wolframe.net
        Subject Public Key Info:
            Public Key Algorithm: rsaEncryption
            RSA Public Key: (1024 bit)
                Modulus (1024 bit):
                    00:b5:b7:a6:fa:fe:b7:90:fa:ef:01:f2:5b:1b:00:
                    83:e4:c6:9a:00:aa:8f:d6:ed:95:db:b2:7d:c8:d8:
                    9f:50:9a:8f:91:3b:ab:3b:52:3b:4d:30:10:fe:9b:
                    f1:f6:30:7e:b8:89:3b:c6:97:18:43:fd:b3:d9:96:
                    0d:ab:c0:44:c3:e8:19:1c:93:c0:2b:68:b5:1d:02:
                    67:61:ef:cf:85:d6:96:d3:3b:10:48:7a:05:77:7e:
                    36:43:a0:54:0a:45:ad:17:91:9d:e4:e7:68:28:d6:
                    b3:94:e8:7b:b2:54:f6:17:39:5b:e9:43:12:ba:3a:
                    f2:ee:3b:17:3f:bf:94:b2:59
                Exponent: 65537 (0x10001)
        X509v3 extensions:
            X509v3 Basic Constraints: 
                CA:FALSE
            Netscape Comment: 
                OpenSSL Generated Certificate
            X509v3 Subject Key Identifier: 
                FB:DF:3F:DB:EA:CC:14:A7:22:D5:38:21:8E:23:54:60:B2:B4:6C:0B
            X509v3 Authority Key Identifier: 
                keyid:4E:BA:C7:16:FD:E0:E8:D2:F8:E8:33:2C:8B:60:04:9C:17:E8:78:BD

    Signature Algorithm: sha1WithRSAEncryption
        21:05:2a:38:6e:0c:c6:34:99:eb:34:21:0a:31:cc:e7:da:99:
        f3:6c:c1:bb:42:c1:f2:0a:a8:74:f4:8d:38:75:8d:cf:17:64:
        43:1a:74:3a:ea:8e:e3:07:2f:fe:c2:e2:6e:b9:78:42:e9:fa:
        dc:9e:1b:33:60:0c:b0:56:c9:48:f8:63:bb:bf:f1:e6:c5:59:
        8a:23:56:d2:d3:45:90:a9:40:16:9a:88:e9:c9:cc:0d:63:2f:
        bf:b8:b4:e0:69:fd:f6:3b:8c:ed:0d:8b:21:61:6c:e7:2b:db:
        16:79:44:5a:d8:1f:b1:bc:a1:b1:29:b7:4b:3b:47:40:67:a1:
        af:21:80:6c:24:48:79:57:d7:d8:de:12:e8:42:b6:d7:cb:f3:
        8d:f5:4e:5b:62:32:fb:f0:a0:1d:f3:9b:94:88:5f:64:bc:b3:
        03:13:c7:e7:36:e4:2d:e8:b7:cc:b5:b0:19:88:f5:3f:c8:71:
        23:c6:dd:6b:ee:e9:b8:d9:96:74:ba:30:ae:1a:31:eb:e3:f7:
        6c:7c:c9:48:e5:cb:9d:82:15:69:fc:6f:85:8e:6e:25:44:4f:
        94:3d:c7:e6:b5:25:22:89:3f:f0:0e:81:66:8c:3e:ec:e8:b8:
        87:de:6d:f5:81:fc:eb:f2:86:16:bb:c8:9b:70:ea:80:e5:f5:
        f2:29:93:e1
-----BEGIN CERTIFICATE-----
MIIDxzCCAq+gAwIBAgIBBjANBgkqhkiG9w0BAQUFADCBmTELMAkGA1UEBhMCWFkx
ETAPBgNVBAgTCFdvbGZsYW5kMRIwEAYDVQQHEwlXb2xmdmlsbGUxFjAUBgNVBAoT
DVdvbGYgUGFjayBMdGQxGTAXBgNVBAsTEERpbm93b2x2ZXMgR3JvdXAxEDAOBgNV
BAMTB1dvbGYgQ0ExHjAcBgkqhkiG9w0BCQEWD0NBQHdvbGZyYW1lLm5ldDAeFw0x
MTAzMDIwMDA3MDVaFw0xMjAzMDEwMDA3MDVaMIG6MQswCQYDVQQGEwJYWTERMA8G
A1UECBMIV29sZmxhbmQxEjAQBgNVBAcTCVdvbGZ2aWxsZTEWMBQGA1UEChMNV29s
ZiBQYWNrIEx0ZDEZMBcGA1UECxMQRGlub3dvbHZlcyBHcm91cDEtMCsGA1UEAxMk
V29sZnJhbWUgU2VydmVyIChwYXNzd29yZCBwcm90ZWN0ZWQpMSIwIAYJKoZIhvcN
AQkBFhNzZXJ2ZXJAd29sZnJhbWUubmV0MIGfMA0GCSqGSIb3DQEBAQUAA4GNADCB
iQKBgQC1t6b6/reQ+u8B8lsbAIPkxpoAqo/W7ZXbsn3I2J9Qmo+RO6s7UjtNMBD+
m/H2MH64iTvGlxhD/bPZlg2rwETD6Bkck8AraLUdAmdh78+F1pbTOxBIegV3fjZD
oFQKRa0XkZ3k52go1rOU6HuyVPYXOVvpQxK6OvLuOxc/v5SyWQIDAQABo3sweTAJ
BgNVHRMEAjAAMCwGCWCGSAGG+EIBDQQfFh1PcGVuU1NMIEdlbmVyYXRlZCBDZXJ0
aWZpY2F0ZTAdBgNVHQ4EFgQU+98/2+rMFKci1TghjiNUYLK0bAswHwYDVR0jBBgw
FoAUTrrHFv3g6NL46DMsi2AEnBfoeL0wDQYJKoZIhvcNAQEFBQADggEBACEFKjhu
DMY0mes0IQoxzOfamfNswbtCwfIKqHT0jTh1jc8XZEMadDrqjuMHL/7C4m65eELp
+tyeGzNgDLBWyUj4Y7u/8ebFWYojVtLTRZCpQBaaiOnJzA1jL7+4tOBp/fY7jO0N
iyFhbOcr2xZ5RFrYH7G8obEpt0s7R0Bnoa8hgGwkSHlX19jeEuhCttfL8431Tlti
MvvwoB3zm5SIX2S8swMTx+c25C3ot8y1sBmI9T/IcSPG3Wvu6bjZlnS6MK4aMevj
92x8yUjly52CFWn8b4WObiVET5Q9x+a1JSKJP/AOgWaMPuzouIfebfWB/Ovyhha7
yJtw6oDl9fIpk+E=
-----END CERTIFICATE-----
