Certificate:
    Data:
        Version: 3 (0x2)
        Serial Number: 9 (0x9)
    Signature Algorithm: sha1WithRSAEncryption
        Issuer: C=XY, ST=Wolfland, L=Wolfville, O=Wolf Pack Ltd, OU=Dinowolves Group, CN=Wolf CA/emailAddress=CA@wolframe.net
        Validity
            Not Before: Oct 16 14:58:33 2012 GMT
            Not After : Oct 16 14:58:33 2013 GMT
        Subject: C=XY, ST=Wolfland, L=Wolfville, O=Wolf Pack Ltd, OU=Dinowolves Group, CN=Wolframe Client/emailAddress=client@wolframe.net
        Subject Public Key Info:
            Public Key Algorithm: rsaEncryption
                Public-Key: (1024 bit)
                Modulus:
                    00:a5:71:92:03:e4:0c:4a:d7:28:31:4f:9c:fd:7e:
                    0d:8c:7a:d2:b3:4e:4e:bf:ec:6e:d0:81:86:9c:43:
                    0f:c7:04:c0:28:56:15:5b:37:01:1c:05:75:4c:fa:
                    17:73:63:42:c4:bf:f2:b5:0a:fa:52:eb:c8:cb:3c:
                    e3:2d:86:45:bb:87:c9:e9:4a:96:bf:e5:f3:de:d2:
                    a3:5f:1e:31:2a:90:b2:55:94:07:38:a3:c0:65:de:
                    c6:02:bc:a7:56:21:06:a3:93:3a:03:7d:55:30:20:
                    b5:60:7b:ef:90:56:4c:80:7b:c1:55:0a:7a:ad:a4:
                    cb:fb:d1:fc:f8:82:22:eb:ed
                Exponent: 65537 (0x10001)
        X509v3 extensions:
            X509v3 Basic Constraints: 
                CA:FALSE
            Netscape Comment: 
                OpenSSL Generated Certificate
            X509v3 Subject Key Identifier: 
                30:50:82:42:96:D1:C2:C9:40:B9:C8:72:B9:41:3A:C8:31:27:17:59
            X509v3 Authority Key Identifier: 
                keyid:4E:BA:C7:16:FD:E0:E8:D2:F8:E8:33:2C:8B:60:04:9C:17:E8:78:BD

    Signature Algorithm: sha1WithRSAEncryption
         80:4a:de:36:3f:09:6c:93:fa:25:4f:e1:d5:04:48:05:e3:ee:
         bd:9c:cd:ec:aa:fd:f8:b8:f2:45:93:c8:14:c3:11:7e:45:0f:
         fe:77:1a:b7:bc:f3:4d:02:33:67:20:a6:22:58:da:9b:ac:10:
         6c:2f:b6:5e:a1:d9:a8:d9:60:19:1f:c5:03:3f:8d:41:f3:eb:
         1e:8a:72:7a:2a:ca:57:8f:c7:fb:49:61:40:12:1d:fa:89:f9:
         d1:6a:4d:ae:1f:cd:6e:75:20:2b:7d:a7:98:28:04:eb:72:a7:
         4d:f7:f3:2b:22:52:fd:13:d2:bf:d9:c4:89:88:d2:46:df:a9:
         15:bd:1f:6f:2a:15:9c:93:74:92:da:03:5a:bb:f3:5e:f0:9a:
         92:1a:4a:3a:98:7f:9f:db:3b:53:ec:e2:c8:03:48:f0:30:b1:
         26:0a:22:1e:6b:de:19:f0:47:c9:b0:ad:48:6d:47:1a:5c:62:
         e1:9d:28:a7:63:b3:5d:71:38:dd:05:81:76:a0:55:75:3e:09:
         1a:fa:db:be:b1:eb:a9:a9:d9:99:b3:3d:1c:cf:76:3d:c9:f5:
         16:23:31:07:81:45:96:b5:29:77:47:d2:cf:59:72:fd:91:63:
         92:41:6e:57:91:df:3a:5f:38:62:3c:36:8a:bf:39:18:ad:63:
         1a:87:99:d4
-----BEGIN CERTIFICATE-----
MIIDsjCCApqgAwIBAgIBCTANBgkqhkiG9w0BAQUFADCBmTELMAkGA1UEBhMCWFkx
ETAPBgNVBAgTCFdvbGZsYW5kMRIwEAYDVQQHEwlXb2xmdmlsbGUxFjAUBgNVBAoT
DVdvbGYgUGFjayBMdGQxGTAXBgNVBAsTEERpbm93b2x2ZXMgR3JvdXAxEDAOBgNV
BAMTB1dvbGYgQ0ExHjAcBgkqhkiG9w0BCQEWD0NBQHdvbGZyYW1lLm5ldDAeFw0x
MjEwMTYxNDU4MzNaFw0xMzEwMTYxNDU4MzNaMIGlMQswCQYDVQQGEwJYWTERMA8G
A1UECBMIV29sZmxhbmQxEjAQBgNVBAcTCVdvbGZ2aWxsZTEWMBQGA1UEChMNV29s
ZiBQYWNrIEx0ZDEZMBcGA1UECxMQRGlub3dvbHZlcyBHcm91cDEYMBYGA1UEAxMP
V29sZnJhbWUgQ2xpZW50MSIwIAYJKoZIhvcNAQkBFhNjbGllbnRAd29sZnJhbWUu
bmV0MIGfMA0GCSqGSIb3DQEBAQUAA4GNADCBiQKBgQClcZID5AxK1ygxT5z9fg2M
etKzTk6/7G7QgYacQw/HBMAoVhVbNwEcBXVM+hdzY0LEv/K1CvpS68jLPOMthkW7
h8npSpa/5fPe0qNfHjEqkLJVlAc4o8Bl3sYCvKdWIQajkzoDfVUwILVge++QVkyA
e8FVCnqtpMv70fz4giLr7QIDAQABo3sweTAJBgNVHRMEAjAAMCwGCWCGSAGG+EIB
DQQfFh1PcGVuU1NMIEdlbmVyYXRlZCBDZXJ0aWZpY2F0ZTAdBgNVHQ4EFgQUMFCC
QpbRwslAuchyuUE6yDEnF1kwHwYDVR0jBBgwFoAUTrrHFv3g6NL46DMsi2AEnBfo
eL0wDQYJKoZIhvcNAQEFBQADggEBAIBK3jY/CWyT+iVP4dUESAXj7r2czeyq/fi4
8kWTyBTDEX5FD/53Gre8800CM2cgpiJY2pusEGwvtl6h2ajZYBkfxQM/jUHz6x6K
cnoqylePx/tJYUASHfqJ+dFqTa4fzW51ICt9p5goBOtyp0338ysiUv0T0r/ZxImI
0kbfqRW9H28qFZyTdJLaA1q7817wmpIaSjqYf5/bO1Ps4sgDSPAwsSYKIh5r3hnw
R8mwrUhtRxpcYuGdKKdjs11xON0FgXagVXU+CRr6276x66mp2ZmzPRzPdj3J9RYj
MQeBRZa1KXdH0s9Zcv2RY5JBbleR3zpfOGI8Noq/ORitYxqHmdQ=
-----END CERTIFICATE-----
