Certificate:
    Data:
        Version: 3 (0x2)
        Serial Number: 16 (0x10)
    Signature Algorithm: sha1WithRSAEncryption
        Issuer: C=XY, ST=Wolfland, L=Wolfville, O=Wolf Pack Ltd, OU=Dinowolves Group, CN=Wolf CA/emailAddress=CA@wolframe.net
        Validity
            Not Before: Nov 28 11:33:16 2013 GMT
            Not After : Nov 28 11:33:16 2014 GMT
        Subject: C=XY, ST=Wolfland, L=Wolfville, O=Wolf Pack Ltd, OU=Dinowolves Group, CN=Wolframe Client/emailAddress=client@wolframe.net
        Subject Public Key Info:
            Public Key Algorithm: rsaEncryption
                Public-Key: (1024 bit)
                Modulus:
                    00:a5:71:92:03:e4:0c:4a:d7:28:31:4f:9c:fd:7e:
                    0d:8c:7a:d2:b3:4e:4e:bf:ec:6e:d0:81:86:9c:43:
                    0f:c7:04:c0:28:56:15:5b:37:01:1c:05:75:4c:fa:
                    17:73:63:42:c4:bf:f2:b5:0a:fa:52:eb:c8:cb:3c:
                    e3:2d:86:45:bb:87:c9:e9:4a:96:bf:e5:f3:de:d2:
                    a3:5f:1e:31:2a:90:b2:55:94:07:38:a3:c0:65:de:
                    c6:02:bc:a7:56:21:06:a3:93:3a:03:7d:55:30:20:
                    b5:60:7b:ef:90:56:4c:80:7b:c1:55:0a:7a:ad:a4:
                    cb:fb:d1:fc:f8:82:22:eb:ed
                Exponent: 65537 (0x10001)
        X509v3 extensions:
            X509v3 Basic Constraints: 
                CA:FALSE
            Netscape Comment: 
                OpenSSL Generated Certificate
            X509v3 Subject Key Identifier: 
                30:50:82:42:96:D1:C2:C9:40:B9:C8:72:B9:41:3A:C8:31:27:17:59
            X509v3 Authority Key Identifier: 
                keyid:4E:BA:C7:16:FD:E0:E8:D2:F8:E8:33:2C:8B:60:04:9C:17:E8:78:BD

    Signature Algorithm: sha1WithRSAEncryption
         8e:0e:73:fa:e7:88:d6:37:55:0e:25:ef:4e:1d:f1:ad:2d:7c:
         a3:45:75:b4:b5:59:33:74:47:ea:55:4e:4c:b4:3a:d4:31:f4:
         91:22:b6:6e:38:a6:a1:fe:3f:f6:31:1a:fa:6c:4b:77:fe:73:
         b8:dd:77:0d:39:f3:1e:63:55:a3:47:ce:30:63:8d:3c:ad:97:
         78:d4:35:08:50:4c:47:f5:4f:a3:22:50:8c:06:7f:73:a8:9e:
         7b:8b:c5:b0:38:33:9d:98:46:04:37:35:a5:4f:4e:40:22:6d:
         bd:c9:ec:b0:a2:4b:16:7b:8f:11:44:79:44:c3:bb:06:2e:b5:
         04:d6:d6:fb:e9:c0:b4:de:d2:e2:b9:f2:d5:60:c9:90:62:d7:
         b8:64:5a:5f:10:3b:1b:91:f5:bf:72:6b:46:43:03:4c:30:4a:
         e3:db:75:74:f7:52:7e:8a:67:19:cb:cb:b0:05:24:da:55:fd:
         f5:50:89:8c:00:69:be:87:6c:a5:8a:44:5b:e2:7e:17:49:7f:
         2e:3e:1b:c8:e9:1d:ea:eb:ca:bd:55:50:b0:2b:87:91:56:93:
         a6:45:8e:15:ec:8a:e9:24:7b:62:ca:0b:69:46:44:b7:a0:ed:
         e8:3a:23:4d:03:e3:11:6e:2d:6b:4b:fe:f6:ea:04:41:b4:aa:
         b2:c9:d6:52
-----BEGIN CERTIFICATE-----
MIIDsjCCApqgAwIBAgIBEDANBgkqhkiG9w0BAQUFADCBmTELMAkGA1UEBhMCWFkx
ETAPBgNVBAgTCFdvbGZsYW5kMRIwEAYDVQQHEwlXb2xmdmlsbGUxFjAUBgNVBAoT
DVdvbGYgUGFjayBMdGQxGTAXBgNVBAsTEERpbm93b2x2ZXMgR3JvdXAxEDAOBgNV
BAMTB1dvbGYgQ0ExHjAcBgkqhkiG9w0BCQEWD0NBQHdvbGZyYW1lLm5ldDAeFw0x
MzExMjgxMTMzMTZaFw0xNDExMjgxMTMzMTZaMIGlMQswCQYDVQQGEwJYWTERMA8G
A1UECBMIV29sZmxhbmQxEjAQBgNVBAcTCVdvbGZ2aWxsZTEWMBQGA1UEChMNV29s
ZiBQYWNrIEx0ZDEZMBcGA1UECxMQRGlub3dvbHZlcyBHcm91cDEYMBYGA1UEAxMP
V29sZnJhbWUgQ2xpZW50MSIwIAYJKoZIhvcNAQkBFhNjbGllbnRAd29sZnJhbWUu
bmV0MIGfMA0GCSqGSIb3DQEBAQUAA4GNADCBiQKBgQClcZID5AxK1ygxT5z9fg2M
etKzTk6/7G7QgYacQw/HBMAoVhVbNwEcBXVM+hdzY0LEv/K1CvpS68jLPOMthkW7
h8npSpa/5fPe0qNfHjEqkLJVlAc4o8Bl3sYCvKdWIQajkzoDfVUwILVge++QVkyA
e8FVCnqtpMv70fz4giLr7QIDAQABo3sweTAJBgNVHRMEAjAAMCwGCWCGSAGG+EIB
DQQfFh1PcGVuU1NMIEdlbmVyYXRlZCBDZXJ0aWZpY2F0ZTAdBgNVHQ4EFgQUMFCC
QpbRwslAuchyuUE6yDEnF1kwHwYDVR0jBBgwFoAUTrrHFv3g6NL46DMsi2AEnBfo
eL0wDQYJKoZIhvcNAQEFBQADggEBAI4Oc/rniNY3VQ4l704d8a0tfKNFdbS1WTN0
R+pVTky0OtQx9JEitm44pqH+P/YxGvpsS3f+c7jddw058x5jVaNHzjBjjTytl3jU
NQhQTEf1T6MiUIwGf3OonnuLxbA4M52YRgQ3NaVPTkAibb3J7LCiSxZ7jxFEeUTD
uwYutQTW1vvpwLTe0uK58tVgyZBi17hkWl8QOxuR9b9ya0ZDA0wwSuPbdXT3Un6K
ZxnLy7AFJNpV/fVQiYwAab6HbKWKRFvifhdJfy4+G8jpHerryr1VULArh5FWk6ZF
jhXsiukke2LKC2lGRLeg7eg6I00D4xFuLWtL/vbqBEG0qrLJ1lI=
-----END CERTIFICATE-----
